; ModuleID = 'bench/cpython/original/pyfpe.ll'
source_filename = "bench/cpython/original/pyfpe.ll"
target datalayout = "e-m:e-p270:32:32-p271:32:32-p272:64:64-i64:64-i128:128-f80:128-n8:16:32:64-S128"
target triple = "x86_64-pc-linux-gnu"

@PyFPE_counter = hidden local_unnamed_addr global i32 0, align 4

; Function Attrs: mustprogress nofree norecurse nosync nounwind willreturn memory(none) uwtable
define hidden noundef double @PyFPE_dummy(ptr noundef readnone captures(none) %0) local_unnamed_addr #0 {
  ret double 1.000000e+00
}


!llvm.module.flags = !{!0, !1, !2, !3}

!0 = !{i32 1, !"wchar_size", i32 4}
!1 = !{i32 8, !"PIC Level", i32 2}
!2 = !{i32 7, !"PIE Level", i32 2}
!3 = !{i32 7, !"uwtable", i32 2}
